Certificate:
    Data:
        Version: 1 (0x0)
        Serial Number: 18 (0x12)
    Signature Algorithm: md5WithRSAEncryption
        Issuer: O=NOVA ROOT, L=Mountain View, ST=California, C=US
        Validity
            Not Before: Jan 28 13:21:58 2015 GMT
            Not After : Jan 28 13:21:58 2016 GMT
        Subject: C=US, ST=California, O=OpenStack, OU=NovaDev, CN=a783d4777eb54b87-8193bd33ae4c46ab-2015-01-28T13:21:58Z
        Subject Public Key Info:
            Public Key Algorithm: rsaEncryption
                Public-Key: (2048 bit)
                Modulus:
                    00:ce:f3:03:33:cd:b2:b2:c3:82:55:89:62:fe:98:
                    29:62:78:bd:0c:27:69:47:03:3a:fc:f4:cb:33:6e:
                    2d:41:3e:2f:4a:cc:b5:09:f6:34:70:f9:ed:3b:59:
                    e4:b1:9d:e1:0d:72:99:77:2c:68:51:44:69:93:e1:
                    8d:fe:7e:5f:02:87:b7:9a:c2:97:3c:77:16:7f:88:
                    00:08:78:c6:5d:43:5c:2c:ff:82:fe:75:e1:bf:c7:
                    2c:58:62:bb:2a:86:cc:43:81:0f:8a:33:42:64:00:
                    fb:c0:f4:80:2f:6a:70:fb:be:60:a6:f8:27:34:b0:
                    ba:f0:f5:96:ae:a2:9e:55:72:df:39:74:23:7c:09:
                    30:0d:4c:5f:08:6b:a8:d6:7d:f0:bd:4d:99:d9:59:
                    6f:e0:e0:89:95:46:cb:38:c6:91:b7:49:e8:a0:19:
                    ea:ac:8f:6c:dd:fb:62:75:b3:cb:e8:07:55:b7:a1:
                    41:fa:11:14:06:ce:78:7a:0e:65:a2:98:a8:9a:3c:
                    c6:f2:b9:fa:99:76:1b:ae:ac:31:f3:cb:23:92:04:
                    15:d4:4f:69:4a:6a:6c:7d:30:f7:41:8b:28:7c:18:
                    0e:ad:37:95:dd:f5:16:a0:bf:64:9b:c4:75:12:fb:
                    50:ed:87:e9:23:a3:7f:f6:e4:5b:e6:19:e6:00:b7:
                    1d:4f
                Exponent: 65537 (0x10001)
    Signature Algorithm: md5WithRSAEncryption
         36:5a:a7:dc:aa:12:1c:30:c4:69:91:19:41:63:4c:16:41:04:
         cc:e6:49:5e:66:cf:cf:98:99:76:b6:44:b5:57:19:75:32:25:
         5f:4f:f3:9f:aa:a8:57:97:e4:7f:2f:55:29:97:4e:a7:57:d3:
         64:8b:05:04:b8:64:cb:a3:21:f1:0b:05:1d:08:55:de:2b:c7:
         a5:d7:88:60:34:17:a6:4c:11:b9:a7:c1:ad:93:a8:64:0a:f8:
         4a:d7:59:3b:19:f4:fe:1b:e0:72:a9:7a:a8:df:5d:ae:22:ca:
         4f:f5:4f:b4:b2:4c:4d:7f:2a:11:76:0b:b7:dc:c6:ee:de:0b:
         1f:13
-----BEGIN CERTIFICATE-----
MIICyzCCAjQCARIwDQYJKoZIhvcNAQEEBQAwTjESMBAGA1UEChMJTk9WQSBST09U
MRYwFAYDVQQHEw1Nb3VudGFpbiBWaWV3MRMwEQYDVQQIEwpDYWxpZm9ybmlhMQsw
CQYDVQQGEwJVUzAeFw0xNTAxMjgxMzIxNThaFw0xNjAxMjgxMzIxNThaMIGJMQsw
CQYDVQQGEwJVUzETMBEGA1UECAwKQ2FsaWZvcm5pYTESMBAGA1UECgwJT3BlblN0
YWNrMRAwDgYDVQQLDAdOb3ZhRGV2MT8wPQYDVQQDDDZhNzgzZDQ3NzdlYjU0Yjg3
LTgxOTNiZDMzYWU0YzQ2YWItMjAxNS0wMS0yOFQxMzoyMTo1OFowggEiMA0GCSqG
SIb3DQEBAQUAA4IBDwAwggEKAoIBAQDO8wMzzbKyw4JViWL+mClieL0MJ2lHAzr8
9Mszbi1BPi9KzLUJ9jRw+e07WeSxneENcpl3LGhRRGmT4Y3+fl8Ch7eawpc8dxZ/
iAAIeMZdQ1ws/4L+deG/xyxYYrsqhsxDgQ+KM0JkAPvA9IAvanD7vmCm+Cc0sLrw
9Zauop5Vct85dCN8CTANTF8Ia6jWffC9TZnZWW/g4ImVRss4xpG3SeigGeqsj2zd
+2J1s8voB1W3oUH6ERQGznh6DmWimKiaPMbyufqZdhuurDHzyyOSBBXUT2lKamx9
MPdBiyh8GA6tN5Xd9Ragv2SbxHUS+1Dth+kjo3/25FvmGeYAtx1PAgMBAAEwDQYJ
KoZIhvcNAQEEBQADgYEANlqn3KoSHDDEaZEZQWNMFkEEzOZJXmbPz5iZdrZEtVcZ
dTIlX0/zn6qoV5fkfy9VKZdOp1fTZIsFBLhky6Mh8QsFHQhV3ivHpdeIYDQXpkwR
uafBrZOoZAr4StdZOxn0/hvgcql6qN9driLKT/VPtLJMTX8qEXYLt9zG7t4LHxM=
-----END CERTIFICATE-----
