Certificate:
    Data:
        Version: 1 (0x0)
        Serial Number: 19 (0x13)
    Signature Algorithm: md5WithRSAEncryption
        Issuer: O=NOVA ROOT, L=Mountain View, ST=California, C=US
        Validity
            Not Before: Jan 28 13:22:03 2015 GMT
            Not After : Jan 28 13:22:03 2016 GMT
        Subject: C=US, ST=California, O=OpenStack, OU=NovaDev, CN=fc6838aa31624eec-9049309cd1b14c2e-2015-01-28T13:22:02Z
        Subject Public Key Info:
            Public Key Algorithm: rsaEncryption
                Public-Key: (2048 bit)
                Modulus:
                    00:c1:0c:f8:98:85:1d:35:ae:18:91:70:4c:46:6c:
                    07:98:42:45:87:c9:63:7c:0c:64:c1:70:71:b8:b6:
                    35:6b:b7:fa:71:cb:9e:7d:82:d9:2f:1d:51:07:7e:
                    3e:8b:3c:e8:38:25:9c:b8:b5:a7:ce:ee:53:5f:aa:
                    cb:da:ef:54:d7:c7:ee:fd:39:63:b8:03:4c:97:17:
                    4b:30:6c:bc:f9:6b:2a:e2:80:4c:b8:78:7c:bb:1e:
                    a0:b5:a3:1a:f0:14:1e:ec:b2:8d:57:56:f3:01:7d:
                    cf:ba:f9:92:97:43:1f:e7:9b:0b:e1:f8:37:25:06:
                    fe:c7:bc:f7:09:c4:70:e5:3d:3c:83:7d:69:d6:e2:
                    81:60:35:8e:6b:8e:1e:57:c2:f2:e5:71:7f:35:d5:
                    d5:5a:f1:9b:c8:ff:3c:1a:bb:30:3c:83:45:02:42:
                    7d:47:f6:66:af:81:39:e3:46:79:ba:79:1f:f8:18:
                    3e:03:a2:74:d3:cc:b6:8a:c4:19:84:00:6b:ef:49:
                    76:63:38:2f:58:2c:de:c4:cc:2f:62:20:cd:d2:6e:
                    14:62:ef:57:90:8f:84:00:45:80:ed:6b:85:65:db:
                    c1:5b:d0:6c:9b:af:ba:25:f0:5b:23:77:dc:28:67:
                    ba:9c:d6:ff:36:45:f7:5c:b3:1a:c4:4d:a0:5f:e9:
                    4d:f1
                Exponent: 65537 (0x10001)
    Signature Algorithm: md5WithRSAEncryption
         5b:a0:22:48:5e:d9:5d:a9:f8:e2:58:b3:0a:47:b6:0f:1b:d7:
         da:46:70:7c:36:a6:2b:79:f7:9b:c4:a4:c2:c2:e8:45:15:4f:
         a8:a3:81:08:44:42:26:c6:60:6f:0d:95:e4:b8:6e:35:05:3f:
         84:41:66:c8:87:33:8a:2c:a6:89:d1:70:c2:33:4d:2a:57:b1:
         bb:f6:a7:bf:66:a0:f2:ce:24:db:0d:af:fc:d0:b7:55:8d:e6:
         c6:17:a9:14:6c:a9:72:d0:56:2b:38:0e:63:49:a1:f6:70:0f:
         25:cd:06:dc:04:ac:3d:53:2d:b9:6c:b0:e6:54:67:16:5e:41:
         2c:68
-----BEGIN CERTIFICATE-----
MIICyzCCAjQCARMwDQYJKoZIhvcNAQEEBQAwTjESMBAGA1UEChMJTk9WQSBST09U
MRYwFAYDVQQHEw1Nb3VudGFpbiBWaWV3MRMwEQYDVQQIEwpDYWxpZm9ybmlhMQsw
CQYDVQQGEwJVUzAeFw0xNTAxMjgxMzIyMDNaFw0xNjAxMjgxMzIyMDNaMIGJMQsw
CQYDVQQGEwJVUzETMBEGA1UECAwKQ2FsaWZvcm5pYTESMBAGA1UECgwJT3BlblN0
YWNrMRAwDgYDVQQLDAdOb3ZhRGV2MT8wPQYDVQQDDDZmYzY4MzhhYTMxNjI0ZWVj
LTkwNDkzMDljZDFiMTRjMmUtMjAxNS0wMS0yOFQxMzoyMjowMlowggEiMA0GCSqG
SIb3DQEBAQUAA4IBDwAwggEKAoIBAQDBDPiYhR01rhiRcExGbAeYQkWHyWN8DGTB
cHG4tjVrt/pxy559gtkvHVEHfj6LPOg4JZy4tafO7lNfqsva71TXx+79OWO4A0yX
F0swbLz5ayrigEy4eHy7HqC1oxrwFB7sso1XVvMBfc+6+ZKXQx/nmwvh+DclBv7H
vPcJxHDlPTyDfWnW4oFgNY5rjh5XwvLlcX811dVa8ZvI/zwauzA8g0UCQn1H9mav
gTnjRnm6eR/4GD4DonTTzLaKxBmEAGvvSXZjOC9YLN7EzC9iIM3SbhRi71eQj4QA
RYDta4Vl28Fb0Gybr7ol8Fsjd9woZ7qc1v82RfdcsxrETaBf6U3xAgMBAAEwDQYJ
KoZIhvcNAQEEBQADgYEAW6AiSF7ZXan44lizCke2DxvX2kZwfDamK3n3m8SkwsLo
RRVPqKOBCERCJsZgbw2V5LhuNQU/hEFmyIcziiymidFwwjNNKlexu/anv2ag8s4k
2w2v/NC3VY3mxhepFGypctBWKzgOY0mh9nAPJc0G3ASsPVMtuWyw5lRnFl5BLGg=
-----END CERTIFICATE-----
