Certificate:
    Data:
        Version: 1 (0x0)
        Serial Number: 20 (0x14)
    Signature Algorithm: md5WithRSAEncryption
        Issuer: O=NOVA ROOT, L=Mountain View, ST=California, C=US
        Validity
            Not Before: Jan 28 13:22:06 2015 GMT
            Not After : Jan 28 13:22:06 2016 GMT
        Subject: C=US, ST=California, O=OpenStack, OU=NovaDev, CN=fc6838aa31624eec-8193bd33ae4c46ab-2015-01-28T13:22:06Z
        Subject Public Key Info:
            Public Key Algorithm: rsaEncryption
                Public-Key: (2048 bit)
                Modulus:
                    00:e2:88:66:7e:30:de:9b:f0:2d:33:75:29:78:e6:
                    28:88:0b:49:65:9b:75:76:e1:05:87:be:11:f5:22:
                    5c:5a:d2:17:73:ec:19:18:42:c1:58:09:c7:2a:41:
                    0d:7e:d7:7a:aa:6e:f6:49:b7:68:5b:34:5c:9f:55:
                    8f:35:2f:fa:53:6c:17:ab:14:ab:c0:f5:39:5e:8a:
                    65:cb:3a:0e:22:28:7b:dc:96:76:ea:25:7f:56:94:
                    02:b8:3c:0d:88:6e:1d:44:96:88:01:dc:27:89:42:
                    b5:82:68:e2:99:29:ae:5a:9b:68:73:f8:fc:cf:8a:
                    16:36:63:97:a1:3d:ae:4b:5a:5f:7f:59:8b:bb:c7:
                    26:0e:e3:7b:e7:3b:15:45:d7:1c:76:fb:c1:62:d1:
                    64:52:e5:36:b6:3a:63:39:a0:db:c6:53:aa:91:ca:
                    e9:c7:5e:da:e0:2f:6b:f5:7b:0f:67:0c:45:cf:8c:
                    9c:b2:4d:cb:bc:89:59:e2:59:0c:ac:7f:82:86:85:
                    bf:68:4d:0c:c2:67:91:aa:06:06:5b:06:7b:81:6c:
                    28:6b:44:e5:06:15:13:72:cb:6b:0b:d9:df:3d:a0:
                    1d:62:4d:2e:f0:47:d8:ba:a2:9a:e1:c2:6e:1a:eb:
                    3f:7a:b0:2f:e7:74:4f:66:c5:b4:01:4b:fa:75:37:
                    85:87
                Exponent: 65537 (0x10001)
    Signature Algorithm: md5WithRSAEncryption
         0f:8e:f2:fc:c0:8d:53:19:4c:2f:b0:4a:25:ad:87:2a:af:c8:
         e5:6c:60:02:1e:c7:25:88:89:70:89:b5:c4:75:6d:ad:68:e7:
         7e:48:43:90:fc:50:fe:1e:36:8f:d1:c8:69:6c:43:e2:3b:6d:
         e6:dd:a4:b0:b1:df:f9:e1:21:35:a8:06:a6:d8:3f:ad:5b:3b:
         6b:c4:40:3f:c0:61:19:30:35:89:35:c3:98:79:69:f1:10:49:
         1a:87:ea:03:49:33:1b:a6:31:1e:70:1a:0e:0e:1a:a4:ba:0f:
         a5:b0:f6:71:e2:b0:6f:a7:40:c5:16:11:af:f4:5c:dd:92:90:
         e6:1e
-----BEGIN CERTIFICATE-----
MIICyzCCAjQCARQwDQYJKoZIhvcNAQEEBQAwTjESMBAGA1UEChMJTk9WQSBST09U
MRYwFAYDVQQHEw1Nb3VudGFpbiBWaWV3MRMwEQYDVQQIEwpDYWxpZm9ybmlhMQsw
CQYDVQQGEwJVUzAeFw0xNTAxMjgxMzIyMDZaFw0xNjAxMjgxMzIyMDZaMIGJMQsw
CQYDVQQGEwJVUzETMBEGA1UECAwKQ2FsaWZvcm5pYTESMBAGA1UECgwJT3BlblN0
YWNrMRAwDgYDVQQLDAdOb3ZhRGV2MT8wPQYDVQQDDDZmYzY4MzhhYTMxNjI0ZWVj
LTgxOTNiZDMzYWU0YzQ2YWItMjAxNS0wMS0yOFQxMzoyMjowNlowggEiMA0GCSqG
SIb3DQEBAQUAA4IBDwAwggEKAoIBAQDiiGZ+MN6b8C0zdSl45iiIC0llm3V24QWH
vhH1Ilxa0hdz7BkYQsFYCccqQQ1+13qqbvZJt2hbNFyfVY81L/pTbBerFKvA9Tle
imXLOg4iKHvclnbqJX9WlAK4PA2Ibh1ElogB3CeJQrWCaOKZKa5am2hz+PzPihY2
Y5ehPa5LWl9/WYu7xyYO43vnOxVF1xx2+8Fi0WRS5Ta2OmM5oNvGU6qRyunHXtrg
L2v1ew9nDEXPjJyyTcu8iVniWQysf4KGhb9oTQzCZ5GqBgZbBnuBbChrROUGFRNy
y2sL2d89oB1iTS7wR9i6oprhwm4a6z96sC/ndE9mxbQBS/p1N4WHAgMBAAEwDQYJ
KoZIhvcNAQEEBQADgYEAD47y/MCNUxlML7BKJa2HKq/I5WxgAh7HJYiJcIm1xHVt
rWjnfkhDkPxQ/h42j9HIaWxD4jtt5t2ksLHf+eEhNagGptg/rVs7a8RAP8BhGTA1
iTXDmHlp8RBJGofqA0kzG6YxHnAaDg4apLoPpbD2ceKwb6dAxRYRr/Rc3ZKQ5h4=
-----END CERTIFICATE-----
