Certificate:
    Data:
        Version: 1 (0x0)
        Serial Number: 17 (0x11)
    Signature Algorithm: md5WithRSAEncryption
        Issuer: O=NOVA ROOT, L=Mountain View, ST=California, C=US
        Validity
            Not Before: Jan 28 13:21:54 2015 GMT
            Not After : Jan 28 13:21:54 2016 GMT
        Subject: C=US, ST=California, O=OpenStack, OU=NovaDev, CN=a146aee43ddb4590-9049309cd1b14c2e-2015-01-28T13:21:53Z
        Subject Public Key Info:
            Public Key Algorithm: rsaEncryption
                Public-Key: (2048 bit)
                Modulus:
                    00:d7:72:d9:47:c0:c3:fc:58:90:31:9c:8d:70:73:
                    f8:9e:df:3c:80:80:33:80:d6:aa:b5:37:c5:ef:19:
                    90:77:46:d0:7b:da:ab:47:08:dd:d1:11:2c:97:6d:
                    d2:05:26:0a:dc:5a:90:db:15:48:33:f9:61:7f:a4:
                    7f:9c:74:eb:61:cb:3e:3e:97:82:3a:db:78:3e:ec:
                    fa:b1:82:5a:d4:91:4f:7f:a8:d5:2d:a5:60:b5:cb:
                    c6:24:14:f2:ce:9d:03:18:52:e4:c9:32:02:0c:3a:
                    b9:09:0b:63:ec:95:ce:72:8f:7d:06:2c:d4:b7:50:
                    83:ab:7f:c9:9c:3c:a9:bc:78:90:1d:4e:48:35:4b:
                    13:70:ab:da:9f:97:d0:b2:39:5b:92:9b:8f:75:91:
                    69:d2:d3:d8:2a:b5:e4:23:ba:26:51:1a:72:e3:d4:
                    1b:9b:e0:e1:7b:f8:f1:a0:53:71:d6:f2:46:29:97:
                    5d:31:d7:97:69:ee:af:e6:d9:87:d4:eb:5f:ef:12:
                    00:56:b3:c0:69:eb:d9:73:30:57:c7:41:41:a0:de:
                    9a:7f:a1:99:08:5e:58:f7:49:b7:51:b9:4c:62:02:
                    4a:5f:79:d5:f0:5b:7e:67:49:b0:a4:4b:1b:9c:16:
                    e1:05:8b:24:b9:7c:1c:56:e7:da:3b:d7:43:cb:55:
                    15:8b
                Exponent: 65537 (0x10001)
    Signature Algorithm: md5WithRSAEncryption
         0d:07:f2:6b:83:ad:60:28:62:ab:e0:a7:4c:d2:82:9a:3e:4b:
         3a:f8:35:88:10:0f:21:46:49:48:6c:0f:41:7b:95:e6:2a:de:
         c4:c8:83:79:ad:f9:b1:75:36:de:e3:88:27:24:c4:71:1d:0a:
         9a:15:1d:26:cc:b5:4d:a9:70:26:95:a9:9b:d7:54:4e:49:a7:
         ca:4c:c8:d4:2b:a2:08:7c:a3:9d:7e:a0:49:bd:d7:6f:ab:75:
         7f:58:0c:5a:fb:3a:0e:ac:c4:37:09:de:a7:19:c8:ba:b5:b0:
         31:3c:2f:66:10:ab:1d:69:54:b7:db:13:aa:4e:71:e2:91:44:
         44:23
-----BEGIN CERTIFICATE-----
MIICyzCCAjQCAREwDQYJKoZIhvcNAQEEBQAwTjESMBAGA1UEChMJTk9WQSBST09U
MRYwFAYDVQQHEw1Nb3VudGFpbiBWaWV3MRMwEQYDVQQIEwpDYWxpZm9ybmlhMQsw
CQYDVQQGEwJVUzAeFw0xNTAxMjgxMzIxNTRaFw0xNjAxMjgxMzIxNTRaMIGJMQsw
CQYDVQQGEwJVUzETMBEGA1UECAwKQ2FsaWZvcm5pYTESMBAGA1UECgwJT3BlblN0
YWNrMRAwDgYDVQQLDAdOb3ZhRGV2MT8wPQYDVQQDDDZhMTQ2YWVlNDNkZGI0NTkw
LTkwNDkzMDljZDFiMTRjMmUtMjAxNS0wMS0yOFQxMzoyMTo1M1owggEiMA0GCSqG
SIb3DQEBAQUAA4IBDwAwggEKAoIBAQDXctlHwMP8WJAxnI1wc/ie3zyAgDOA1qq1
N8XvGZB3RtB72qtHCN3RESyXbdIFJgrcWpDbFUgz+WF/pH+cdOthyz4+l4I623g+
7PqxglrUkU9/qNUtpWC1y8YkFPLOnQMYUuTJMgIMOrkJC2Pslc5yj30GLNS3UIOr
f8mcPKm8eJAdTkg1SxNwq9qfl9CyOVuSm491kWnS09gqteQjuiZRGnLj1Bub4OF7
+PGgU3HW8kYpl10x15dp7q/m2YfU61/vEgBWs8Bp69lzMFfHQUGg3pp/oZkIXlj3
SbdRuUxiAkpfedXwW35nSbCkSxucFuEFiyS5fBxW59o710PLVRWLAgMBAAEwDQYJ
KoZIhvcNAQEEBQADgYEADQfya4OtYChiq+CnTNKCmj5LOvg1iBAPIUZJSGwPQXuV
5irexMiDea35sXU23uOIJyTEcR0KmhUdJsy1TalwJpWpm9dUTkmnykzI1CuiCHyj
nX6gSb3Xb6t1f1gMWvs6DqzENwnepxnIurWwMTwvZhCrHWlUt9sTqk5x4pFERCM=
-----END CERTIFICATE-----
