Certificate:
    Data:
        Version: 1 (0x0)
        Serial Number: 16 (0x10)
    Signature Algorithm: md5WithRSAEncryption
        Issuer: O=NOVA ROOT, L=Mountain View, ST=California, C=US
        Validity
            Not Before: Jan 28 13:21:49 2015 GMT
            Not After : Jan 28 13:21:49 2016 GMT
        Subject: C=US, ST=California, O=OpenStack, OU=NovaDev, CN=85397b2de08848f9-272ecc2c8ef741cb-2015-01-28T13:21:49Z
        Subject Public Key Info:
            Public Key Algorithm: rsaEncryption
                Public-Key: (2048 bit)
                Modulus:
                    00:a5:ae:70:b7:23:ea:97:58:fc:e2:80:cf:31:8e:
                    d0:97:99:76:cc:8f:01:c7:b2:f1:e3:d4:55:fb:46:
                    3d:47:1d:cd:2e:3e:ff:d0:07:dd:bd:0a:e1:50:96:
                    52:17:c6:43:af:8b:35:af:af:36:8b:0f:fb:12:59:
                    14:09:e2:c3:95:e2:6a:f8:c8:b4:c3:5a:22:5f:f1:
                    71:cb:9d:f7:6a:06:08:a4:e4:df:30:a0:1e:13:5e:
                    b9:27:8e:7a:a2:63:ac:73:c9:2e:72:a1:45:4c:5e:
                    83:39:e3:b4:49:28:82:5f:8a:1a:36:e5:e1:13:f9:
                    30:b2:16:df:b5:0e:70:45:f2:25:cd:b2:c8:48:96:
                    46:01:22:2d:ac:53:40:4a:94:07:bd:32:f5:12:24:
                    5e:46:e0:65:24:a7:a9:d8:20:27:21:e6:50:41:84:
                    f9:35:98:c8:c0:1d:b4:e0:d7:b3:cd:7e:e9:2a:cb:
                    33:8b:ac:3f:12:d5:95:d9:9c:40:c8:ca:fb:9a:2d:
                    8c:20:c2:38:48:cb:bc:4b:14:20:6b:0f:f7:19:99:
                    67:35:e8:0a:fe:a6:24:5d:7c:e3:4a:ef:28:da:e3:
                    89:60:45:cc:65:a0:18:e5:a1:1f:eb:4e:20:df:eb:
                    5a:04:30:00:3d:20:c3:f7:4b:c6:cc:d0:71:98:88:
                    f8:71
                Exponent: 65537 (0x10001)
    Signature Algorithm: md5WithRSAEncryption
         85:03:49:2a:4d:88:5a:55:cd:b1:a5:32:ec:57:f6:f2:d4:80:
         74:77:dc:ca:46:a2:51:26:85:03:47:2b:d8:fa:17:bf:0a:5e:
         65:5d:e4:f5:13:dd:9e:3c:35:c4:0a:2b:f3:66:82:ed:4c:16:
         5d:47:cb:a1:79:32:d8:68:d8:25:3b:35:27:72:b0:48:33:cc:
         84:b3:74:96:64:52:3c:72:9a:7c:8c:3c:f9:b2:15:1c:51:d1:
         63:d3:2d:6b:a9:23:bb:b2:05:fd:bb:7f:75:d1:32:a0:48:e9:
         3a:bc:ac:a4:91:4d:41:21:24:a6:0b:b0:0c:20:f7:73:d8:90:
         8c:b1
-----BEGIN CERTIFICATE-----
MIICyzCCAjQCARAwDQYJKoZIhvcNAQEEBQAwTjESMBAGA1UEChMJTk9WQSBST09U
MRYwFAYDVQQHEw1Nb3VudGFpbiBWaWV3MRMwEQYDVQQIEwpDYWxpZm9ybmlhMQsw
CQYDVQQGEwJVUzAeFw0xNTAxMjgxMzIxNDlaFw0xNjAxMjgxMzIxNDlaMIGJMQsw
CQYDVQQGEwJVUzETMBEGA1UECAwKQ2FsaWZvcm5pYTESMBAGA1UECgwJT3BlblN0
YWNrMRAwDgYDVQQLDAdOb3ZhRGV2MT8wPQYDVQQDDDY4NTM5N2IyZGUwODg0OGY5
LTI3MmVjYzJjOGVmNzQxY2ItMjAxNS0wMS0yOFQxMzoyMTo0OVowggEiMA0GCSqG
SIb3DQEBAQUAA4IBDwAwggEKAoIBAQClrnC3I+qXWPzigM8xjtCXmXbMjwHHsvHj
1FX7Rj1HHc0uPv/QB929CuFQllIXxkOvizWvrzaLD/sSWRQJ4sOV4mr4yLTDWiJf
8XHLnfdqBgik5N8woB4TXrknjnqiY6xzyS5yoUVMXoM547RJKIJfiho25eET+TCy
Ft+1DnBF8iXNsshIlkYBIi2sU0BKlAe9MvUSJF5G4GUkp6nYICch5lBBhPk1mMjA
HbTg17PNfukqyzOLrD8S1ZXZnEDIyvuaLYwgwjhIy7xLFCBrD/cZmWc16Ar+piRd
fONK7yja44lgRcxloBjloR/rTiDf61oEMAA9IMP3S8bM0HGYiPhxAgMBAAEwDQYJ
KoZIhvcNAQEEBQADgYEAhQNJKk2IWlXNsaUy7Ff28tSAdHfcykaiUSaFA0cr2PoX
vwpeZV3k9RPdnjw1xAor82aC7UwWXUfLoXky2GjYJTs1J3KwSDPMhLN0lmRSPHKa
fIw8+bIVHFHRY9Mta6kju7IF/bt/ddEyoEjpOryspJFNQSEkpguwDCD3c9iQjLE=
-----END CERTIFICATE-----
